

Microchip Technology PIC18 LITE Macro Assembler V1.21 build 54009 
                                                                                               Wed Feb 01 20:55:57 2017

Microchip Technology Omniscient Code Generator (Lite mode) build 54009
     1                           	processor	18F4431
     2                           	fnconf	rparam,??,?,0
     3                           	opt	pw 120
     4                           	opt	lm
     5                           	psect	idataCOMRAM,global,class=CODE,delta=1
     6                           	psect	cinit,global,reloc=2,class=CODE,delta=1
     7                           	psect	bssCOMRAM,global,class=COMRAM,space=1,delta=1
     8                           	psect	dataCOMRAM,global,class=COMRAM,space=1,delta=1
     9                           	psect	bssBANK0,global,class=BANK0,space=1,delta=1
    10                           	psect	cstackCOMRAM,global,class=COMRAM,space=1,delta=1
    11                           	psect	text0,global,reloc=2,class=CODE,delta=1
    12                           	psect	text1,global,reloc=2,class=CODE,delta=1
    13                           	psect	text2,global,reloc=2,class=CODE,delta=1
    14                           	psect	text3,global,reloc=2,class=CODE,delta=1
    15                           	psect	text4,global,reloc=2,class=CODE,delta=1
    16                           	psect	text5,global,reloc=2,class=CODE,delta=1
    17                           	psect	text6,global,reloc=2,class=CODE,delta=1
    18                           	psect	text7,global,reloc=2,class=CODE,delta=1
    19                           	psect	text8,global,reloc=2,class=CODE,delta=1
    20                           	psect	intcode,global,reloc=2,class=CODE,delta=1
    21                           	psect	intsave_regs,global,class=BIGRAM,space=1,delta=1
    22                           	psect	rparam,global,class=COMRAM,space=1,delta=1
    23  0000                     
    24                           	psect	idataCOMRAM
    25  00039E                     __pidataCOMRAM:
    26                           	opt stack 0
    27                           
    28                           ;initializer for _progMemRange
    29  00039E  06                 	db	6
    30  00039F  40                 	db	64
    31  0003A0  00                 	db	0
    32  0003A1  00                 	db	0
    33  0003A2  3F                 	db	63
    34  0003A3  FF                 	db	255
    35  0003A4  00                 	db	0
    36  0003A5  00                 	db	0
    37  0003A6  00                 	db	0
    38  0003A7  00                 	db	0
    39  0000                     _ANSEL0	set	4024
    40  0000                     _ANSEL1	set	4025
    41  0000                     _EECON1bits	set	4006
    42  0000                     _EECON2	set	4007
    43  0000                     _INTCONbits	set	4082
    44  0000                     _PIE1bits	set	3997
    45  0000                     _PIR1bits	set	3998
    46  0000                     _PORTB	set	3969
    47  0000                     _RCONbits	set	4048
    48  0000                     _RCREG	set	4014
    49  0000                     _RCSTA	set	4011
    50  0000                     _RCSTAbits	set	4011
    51  0000                     _SPBRG	set	4015
    52  0000                     _TABLAT	set	4085
    53  0000                     _TBLPTRH	set	4087
    54  0000                     _TBLPTRL	set	4086
    55  0000                     _TBLPTRU	set	4088
    56  0000                     _TRISCbits	set	3988
    57  0000                     _TXREG	set	4013
    58  0000                     _TXSTA	set	4012
    59  0000                     _TXSTAbits	set	4012
    60                           
    61                           ; #config settings
    62  0000                     
    63                           	psect	cinit
    64  0002F0                     __pcinit:
    65                           	opt stack 0
    66  0002F0                     start_initialization:
    67                           	opt stack 0
    68  0002F0                     __initialization:
    69                           	opt stack 0
    70                           
    71                           ; Clear objects allocated to BANK0 (64 bytes)
    72  0002F0  EE00  F060         	lfsr	0,__pbssBANK0
    73  0002F4  0E40               	movlw	64
    74  0002F6                     clear_0:
    75  0002F6  6AEE               	clrf	postinc0,c
    76  0002F8  06E8               	decf	wreg,f,c
    77  0002FA  E1FD               	bnz	clear_0
    78                           
    79                           ; Clear objects allocated to COMRAM (4 bytes)
    80  0002FC  6A29               	clrf	(__pbssCOMRAM+3)& (0+255),c
    81  0002FE  6A28               	clrf	(__pbssCOMRAM+2)& (0+255),c
    82  000300  6A27               	clrf	(__pbssCOMRAM+1)& (0+255),c
    83  000302  6A26               	clrf	__pbssCOMRAM& (0+255),c
    84                           
    85                           ; Initialize objects allocated to COMRAM (10 bytes)
    86                           ; load TBLPTR registers with __pidataCOMRAM
    87  000304  0E9E               	movlw	low __pidataCOMRAM
    88  000306  6EF6               	movwf	tblptrl,c
    89  000308  0E03               	movlw	high __pidataCOMRAM
    90  00030A  6EF7               	movwf	tblptrh,c
    91  00030C  0E00               	movlw	low (__pidataCOMRAM shr (0+16))
    92  00030E  6EF8               	movwf	tblptru,c
    93  000310  EE00  F01C         	lfsr	0,__pdataCOMRAM
    94  000314  EE10 F00A          	lfsr	1,10
    95  000318                     copy_data0:
    96  000318  0009               	tblrd		*+
    97  00031A  CFF5 FFEE          	movff	tablat,postinc0
    98  00031E  50E5               	movf	postdec1,w,c
    99  000320  50E1               	movf	fsr1l,w,c
   100  000322  E1FA               	bnz	copy_data0
   101  000324                     end_of_initialization:
   102                           	opt stack 0
   103  000324                     __end_of__initialization:
   104                           	opt stack 0
   105  000324  0E00               	movlw	low (__Lmediumconst shr (0+16))
   106  000326  6EF8               	movwf	tblptru,c
   107  000328  0100               	movlb	0
   108  00032A  EFC0  F001         	goto	_main	;jump to C main() function
   109                           tblptru	equ	0xFF8
   110                           tblptrh	equ	0xFF7
   111                           tblptrl	equ	0xFF6
   112                           tablat	equ	0xFF5
   113                           postinc0	equ	0xFEE
   114                           wreg	equ	0xFE8
   115                           postdec1	equ	0xFE5
   116                           fsr1l	equ	0xFE1
   117                           
   118                           	psect	bssCOMRAM
   119  000026                     __pbssCOMRAM:
   120                           	opt stack 0
   121  000026                     _applStartAdd:
   122                           	opt stack 0
   123  000026                     	ds	2
   124  000028                     _totalNumberOfPacckets:
   125                           	opt stack 0
   126  000028                     	ds	1
   127  000029                     _uart_rxbuffer_counter:
   128                           	opt stack 0
   129  000029                     	ds	1
   130                           tblptru	equ	0xFF8
   131                           tblptrh	equ	0xFF7
   132                           tblptrl	equ	0xFF6
   133                           tablat	equ	0xFF5
   134                           postinc0	equ	0xFEE
   135                           wreg	equ	0xFE8
   136                           postdec1	equ	0xFE5
   137                           fsr1l	equ	0xFE1
   138                           
   139                           	psect	dataCOMRAM
   140  00001C                     __pdataCOMRAM:
   141                           	opt stack 0
   142  00001C                     _progMemRange:
   143                           	opt stack 0
   144  00001C                     	ds	10
   145                           tblptru	equ	0xFF8
   146                           tblptrh	equ	0xFF7
   147                           tblptrl	equ	0xFF6
   148                           tablat	equ	0xFF5
   149                           postinc0	equ	0xFEE
   150                           wreg	equ	0xFE8
   151                           postdec1	equ	0xFE5
   152                           fsr1l	equ	0xFE1
   153                           
   154                           	psect	bssBANK0
   155  000060                     __pbssBANK0:
   156                           	opt stack 0
   157  000060                     _uart_rxbuffer:
   158                           	opt stack 0
   159  000060                     	ds	64
   160                           tblptru	equ	0xFF8
   161                           tblptrh	equ	0xFF7
   162                           tblptrl	equ	0xFF6
   163                           tablat	equ	0xFF5
   164                           postinc0	equ	0xFEE
   165                           wreg	equ	0xFE8
   166                           postdec1	equ	0xFE5
   167                           fsr1l	equ	0xFE1
   168                           
   169                           	psect	cstackCOMRAM
   170  000001                     __pcstackCOMRAM:
   171                           	opt stack 0
   172  000001                     ??_InterruptHandlerHigh:
   173                           
   174                           ; 0 bytes @ 0x0
   175  000001                     	ds	14
   176  00000F                     ?_sendData__UART:
   177                           	opt stack 0
   178  00000F                     sendData__UART@data:
   179                           	opt stack 0
   180  00000F                     runApplcn@applcFtr:
   181                           	opt stack 0
   182  00000F                     updateFirmware__Flash@size:
   183                           	opt stack 0
   184  00000F                     erasePage__Flash@rowAdd:
   185                           	opt stack 0
   186                           
   187                           ; 2 bytes @ 0xE
   188  00000F                     	ds	1
   189  000010                     
   190                           ; 0 bytes @ 0xF
   191  000010                     	ds	1
   192  000011                     updateFirmware__Flash@bufIndex:
   193                           	opt stack 0
   194                           
   195                           ; 2 bytes @ 0x10
   196  000011                     	ds	2
   197  000013                     updateFirmware__Flash@bc:
   198                           	opt stack 0
   199                           
   200                           ; 2 bytes @ 0x12
   201  000013                     	ds	2
   202  000015                     ??_runStateMachine:
   203                           
   204                           ; 0 bytes @ 0x14
   205  000015                     	ds	5
   206  00001A                     runStateMachine@i:
   207                           	opt stack 0
   208                           
   209                           ; 1 bytes @ 0x19
   210  00001A                     	ds	1
   211  00001B                     runStateMachine@currentState:
   212                           	opt stack 0
   213                           
   214                           ; 1 bytes @ 0x1A
   215  00001B                     	ds	1
   216  00001C                     tblptru	equ	0xFF8
   217                           tblptrh	equ	0xFF7
   218                           tblptrl	equ	0xFF6
   219                           tablat	equ	0xFF5
   220                           postinc0	equ	0xFEE
   221                           wreg	equ	0xFE8
   222                           postdec1	equ	0xFE5
   223                           fsr1l	equ	0xFE1
   224                           
   225                           ; 0 bytes @ 0x1B
   226 ;;
   227 ;;Main: autosize = 0, tempsize = 0, incstack = 0, save=0
   228 ;;
   229 ;; *************** function _main *****************
   230 ;; Defined at:
   231 ;;		line 42 in file "main.c"
   232 ;; Parameters:    Size  Location     Type
   233 ;;		None
   234 ;; Auto vars:     Size  Location     Type
   235 ;;		None
   236 ;; Return value:  Size  Location     Type
   237 ;;		None               void
   238 ;; Registers used:
   239 ;;		wreg, fsr0l, fsr0h, fsr1l, fsr1h, fsr1l, fsr1h, fsr2l, fsr2h, status,2, status,0, pclat, btemp, btemp+1, btemp+2, bt
      +emp+3, btemp+4, btemp+5, btemp+6, btemp+7, tosl, structret, tblptrl, tblptrh, tblptru, prodl, prodh, bsr, cstack
   240 ;; Tracked objects:
   241 ;;		On entry : 0/0
   242 ;;		On exit  : 0/0
   243 ;;		Unchanged: 0/0
   244 ;; Data sizes:     COMRAM   BANK0   BANK1   BANK2
   245 ;;      Params:         0       0       0       0
   246 ;;      Locals:         0       0       0       0
   247 ;;      Temps:          0       0       0       0
   248 ;;      Totals:         0       0       0       0
   249 ;;Total ram usage:        0 bytes
   250 ;; Hardware stack levels required when called:    4
   251 ;; This function calls:
   252 ;;		_initVarConfigPort
   253 ;;		_driverConfig__UART
   254 ;;		_runStateMachine
   255 ;; This function is called by:
   256 ;;		Startup code after reset
   257 ;; This function uses a non-reentrant model
   258 ;;
   259                           
   260                           	psect	text0
   261  000380                     __ptext0:
   262                           	opt stack 0
   263  000380                     _main:
   264                           	opt stack 27
   265                           
   266                           ;main.c: 43: initVarConfigPort();
   267                           
   268                           ;incstack = 0
   269                           ;incstack = 0
   270  000380  ECB7  F001         	call	_initVarConfigPort	;wreg free
   271                           
   272                           ;main.c: 44: driverConfig__UART();
   273  000384  ECA8  F001         	call	_driverConfig__UART	;wreg free
   274                           
   275                           ;main.c: 45: runStateMachine();
   276  000388  EC52  F000         	call	_runStateMachine	;wreg free
   277  00038C  EF50  F000         	goto	start
   278  000390                     __end_of_main:
   279                           	opt stack 0
   280                           tblptru	equ	0xFF8
   281                           tblptrh	equ	0xFF7
   282                           tblptrl	equ	0xFF6
   283                           tablat	equ	0xFF5
   284                           postinc0	equ	0xFEE
   285                           wreg	equ	0xFE8
   286                           postdec1	equ	0xFE5
   287                           fsr1l	equ	0xFE1
   288                           
   289 ;; *************** function _runStateMachine *****************
   290 ;; Defined at:
   291 ;;		line 82 in file "main.c"
   292 ;; Parameters:    Size  Location     Type
   293 ;;		None
   294 ;; Auto vars:     Size  Location     Type
   295 ;;  currentState    1   26[COMRAM] enum E4667
   296 ;;  i               1   25[COMRAM] unsigned char 
   297 ;; Return value:  Size  Location     Type
   298 ;;		None               void
   299 ;; Registers used:
   300 ;;		wreg, fsr2l, fsr2h, status,2, status,0, pclat, tosl, prodl, prodh, cstack
   301 ;; Tracked objects:
   302 ;;		On entry : 0/0
   303 ;;		On exit  : 0/0
   304 ;;		Unchanged: 0/0
   305 ;; Data sizes:     COMRAM   BANK0   BANK1   BANK2
   306 ;;      Params:         0       0       0       0
   307 ;;      Locals:         2       0       0       0
   308 ;;      Temps:          5       0       0       0
   309 ;;      Totals:         7       0       0       0
   310 ;;Total ram usage:        7 bytes
   311 ;; Hardware stack levels used:    1
   312 ;; Hardware stack levels required when called:    3
   313 ;; This function calls:
   314 ;;		_runApplcn
   315 ;;		_sendData__UART
   316 ;;		_erasePage__Flash
   317 ;;		_updateTablPtr__Flash
   318 ;;		_updateFirmware__Flash
   319 ;; This function is called by:
   320 ;;		_main
   321 ;; This function uses a non-reentrant model
   322 ;;
   323                           
   324                           	psect	text1
   325  0000A4                     __ptext1:
   326                           	opt stack 0
   327  0000A4                     _runStateMachine:
   328                           	opt stack 0
   329  0000A4  D009               	goto	l922
   330  0000A6                     l918:
   331                           
   332                           ;main.c: 92: if (!uart_rxbuffer_counter || (uart_rxbuffer [0] != SYS_ADDRESS_RANGE_RQT))
      +                           {
   333  0000A6  5029               	movf	_uart_rxbuffer_counter,w,c
   334  0000A8  B4D8               	btfsc	status,2,c
   335  0000AA  D006               	goto	l922
   336  0000AC  0100               	movlb	0	; () banked
   337  0000AE  0100               	movlb	0	; () banked
   338  0000B0  5160               	movf	_uart_rxbuffer& (0+255),w,b
   339  0000B2  0A07               	xorlw	7
   340  0000B4  B4D8               	btfsc	status,2,c
   341  0000B6  D003               	goto	l924
   342  0000B8                     l922:
   343                           
   344                           ;main.c: 93: currentState = SYS_SND_ADDRS_RANGE;
   345  0000B8  6E15               	movwf	??_runStateMachine& (0+255),c
   346  0000BA  0E05               	movlw	5
   347  0000BC  D091               	goto	L2
   348  0000BE                     l924:
   349                           
   350                           ;main.c: 95: sendData__UART(progMemRange[0]);
   351  0000BE  C01C  F00F         	movff	_progMemRange,?_sendData__UART
   352  0000C2  ECD4  F001         	call	_sendData__UART	;wreg free
   353                           
   354                           ;main.c: 96: sendData__UART(progMemRange[1]);
   355  0000C6  C01D  F00F         	movff	_progMemRange+1,?_sendData__UART
   356  0000CA  ECD4  F001         	call	_sendData__UART	;wreg free
   357                           
   358                           ;main.c: 97: for (i = 2; i <= (progMemRange[1] + 1); i++) {
   359  0000CE  6E15               	movwf	??_runStateMachine& (0+255),c
   360  0000D0  0E02               	movlw	2
   361  0000D2  6E1A               	movwf	runStateMachine@i,c
   362  0000D4  5015               	movf	??_runStateMachine& (0+255),w,c
   363  0000D6  D00D               	goto	l932
   364  0000D8                     l928:
   365                           
   366                           ;main.c: 98: sendData__UART(progMemRange[i]);
   367  0000D8  501A               	movf	runStateMachine@i,w,c
   368  0000DA  0D01               	mullw	1
   369  0000DC  0E1C               	movlw	low _progMemRange
   370  0000DE  24F3               	addwf	prodl,w,c
   371  0000E0  6ED9               	movwf	fsr2l,c
   372  0000E2  0E00               	movlw	high _progMemRange
   373  0000E4  20F4               	addwfc	prodh,w,c
   374  0000E6  6EDA               	movwf	fsr2h,c
   375  0000E8  50DF               	movf	indf2,w,c
   376  0000EA  6E0F               	movwf	?_sendData__UART,c
   377  0000EC  ECD4  F001         	call	_sendData__UART	;wreg free
   378  0000F0  2A1A               	incf	runStateMachine@i,f,c
   379  0000F2                     l932:
   380  0000F2  501A               	movf	runStateMachine@i,w,c
   381  0000F4  6E15               	movwf	??_runStateMachine& (0+255),c
   382  0000F6  6A16               	clrf	(??_runStateMachine+1)& (0+255),c
   383  0000F8  501D               	movf	_progMemRange+1,w,c
   384  0000FA  6E17               	movwf	(??_runStateMachine+2)& (0+255),c
   385  0000FC  6A18               	clrf	(??_runStateMachine+3)& (0+255),c
   386  0000FE  0E01               	movlw	1
   387  000100  2617               	addwf	??_runStateMachine+2,f,c
   388  000102  0E00               	movlw	0
   389  000104  2218               	addwfc	??_runStateMachine+3,f,c
   390  000106  5018               	movf	??_runStateMachine+3,w,c
   391  000108  0A80               	xorlw	128
   392  00010A  6E19               	movwf	(??_runStateMachine+4)& (0+255),c
   393  00010C  5015               	movf	??_runStateMachine,w,c
   394  00010E  5C17               	subwf	??_runStateMachine+2,w,c
   395  000110  5016               	movf	??_runStateMachine+1,w,c
   396  000112  0A80               	xorlw	128
   397  000114  5819               	subwfb	(??_runStateMachine+4)& (0+255),w,c
   398  000116  B0D8               	btfsc	status,0,c
   399  000118  D7DF               	goto	l928
   400                           
   401                           ;main.c: 99: }
   402                           ;main.c: 100: uart_rxbuffer_counter = 0;
   403  00011A  6E15               	movwf	??_runStateMachine& (0+255),c
   404  00011C  0E00               	movlw	0
   405  00011E  6E29               	movwf	_uart_rxbuffer_counter,c
   406  000120  5015               	movf	??_runStateMachine& (0+255),w,c
   407  000122  D05C               	goto	L3
   408  000124                     l936:
   409                           
   410                           ;main.c: 106: if (!uart_rxbuffer_counter || (uart_rxbuffer [0] != SYS_START_CMND_FROM_PR
      +                          OGRMR)) {
   411  000124  5029               	movf	_uart_rxbuffer_counter,w,c
   412  000126  B4D8               	btfsc	status,2,c
   413  000128  D059               	goto	L3
   414  00012A  0100               	movlb	0	; () banked
   415  00012C  0100               	movlb	0	; () banked
   416  00012E  0560               	decf	_uart_rxbuffer& (0+255),w,b
   417  000130  A4D8               	btfss	status,2,c
   418                           
   419                           ; BSR set to: 0
   420  000132  D054               	goto	L3
   421                           
   422                           ;main.c: 109: sendData__UART(SYS_READY_FOR_FIRMWARE_HEADER);
   423                           
   424                           ;main.c: 108: } else {
   425                           
   426                           ;main.c: 107: currentState = SYS_WAIT_FOR_START_CMND;
   427  000134  6E15               	movwf	??_runStateMachine& (0+255),c
   428  000136  0E02               	movlw	2
   429  000138  6E0F               	movwf	?_sendData__UART,c
   430  00013A  5015               	movf	??_runStateMachine& (0+255),w,c
   431  00013C  ECD4  F001         	call	_sendData__UART	;wreg free
   432                           
   433                           ;main.c: 110: uart_rxbuffer_counter = 0;
   434  000140  6E15               	movwf	??_runStateMachine& (0+255),c
   435  000142  0E00               	movlw	0
   436  000144  6E29               	movwf	_uart_rxbuffer_counter,c
   437  000146  5015               	movf	??_runStateMachine& (0+255),w,c
   438  000148  D003               	goto	L4
   439  00014A                     l948:
   440                           
   441                           ;main.c: 116: if (uart_rxbuffer_counter < 3) {
   442  00014A  0E03               	movlw	3
   443  00014C  6029               	cpfslt	_uart_rxbuffer_counter,c
   444  00014E  D003               	goto	l61
   445  000150                     L4:
   446                           
   447                           ;main.c: 117: currentState = SYS_RCV_FIRMWARE_HEADER;
   448  000150  6E15               	movwf	??_runStateMachine& (0+255),c
   449  000152  0E02               	movlw	2
   450  000154  D045               	goto	L2
   451  000156                     l61:
   452                           
   453                           ;main.c: 121: totalNumberOfPacckets = uart_rxbuffer[0];
   454  000156  C060  F028         	movff	_uart_rxbuffer,_totalNumberOfPacckets
   455                           
   456                           ;main.c: 124: applStartAdd += uart_rxbuffer[2];
   457  00015A  0100               	movlb	0	; () banked
   458  00015C  0100               	movlb	0	; () banked
   459  00015E  5162               	movf	(_uart_rxbuffer+2)& (0+255),w,b
   460  000160  2626               	addwf	_applStartAdd,f,c
   461  000162  0E00               	movlw	0
   462  000164  2227               	addwfc	_applStartAdd+1,f,c
   463                           
   464                           ; BSR set to: 0
   465                           ;main.c: 125: applStartAdd = applStartAdd << 8;
   466  000166  5026               	movf	_applStartAdd,w,c
   467  000168  6E27               	movwf	_applStartAdd+1,c
   468  00016A  6A26               	clrf	_applStartAdd,c
   469                           
   470                           ; BSR set to: 0
   471                           ;main.c: 126: applStartAdd += uart_rxbuffer[1];
   472  00016C  0100               	movlb	0	; () banked
   473  00016E  0100               	movlb	0	; () banked
   474  000170  5161               	movf	(_uart_rxbuffer+1)& (0+255),w,b
   475  000172  2626               	addwf	_applStartAdd,f,c
   476  000174  0E00               	movlw	0
   477  000176  2227               	addwfc	_applStartAdd+1,f,c
   478                           
   479                           ; BSR set to: 0
   480                           ;main.c: 128: uart_rxbuffer_counter = 0;
   481  000178  6E15               	movwf	??_runStateMachine& (0+255),c
   482  00017A  0E00               	movlw	0
   483  00017C  6E29               	movwf	_uart_rxbuffer_counter,c
   484  00017E  5015               	movf	??_runStateMachine& (0+255),w,c
   485                           
   486                           ; BSR set to: 0
   487                           ;main.c: 129: currentState = SYS_CONFIG_FLASH;
   488  000180  6E15               	movwf	??_runStateMachine& (0+255),c
   489  000182  0E01               	movlw	1
   490  000184  D02D               	goto	L2
   491  000186                     l962:
   492                           
   493                           ;main.c: 136: erasePage__Flash();
   494  000186  EC4F  F001         	call	_erasePage__Flash	;wreg free
   495                           
   496                           ;main.c: 139: updateTablPtr__Flash();
   497  00018A  ECC8  F001         	call	_updateTablPtr__Flash	;wreg free
   498                           
   499                           ;main.c: 140: sendData__UART(SYS_FIRMWARE_HEADER_POS_ACK);
   500  00018E  6E15               	movwf	??_runStateMachine& (0+255),c
   501  000190  0E03               	movlw	3
   502  000192  6E0F               	movwf	?_sendData__UART,c
   503  000194  5015               	movf	??_runStateMachine& (0+255),w,c
   504  000196  ECD4  F001         	call	_sendData__UART	;wreg free
   505  00019A  D003               	goto	L5
   506  00019C                     l970:
   507                           
   508                           ;main.c: 145: if (uart_rxbuffer_counter < 64) {
   509  00019C  0E40               	movlw	64
   510  00019E  6029               	cpfslt	_uart_rxbuffer_counter,c
   511  0001A0  D003               	goto	l974
   512  0001A2                     L5:
   513                           
   514                           ;main.c: 146: currentState = SYS_FIRMWARE_UPDATE;
   515  0001A2  6E15               	movwf	??_runStateMachine& (0+255),c
   516  0001A4  0E03               	movlw	3
   517  0001A6  D01C               	goto	L2
   518  0001A8                     l974:
   519                           
   520                           ;main.c: 148: uart_rxbuffer_counter = 0;
   521  0001A8  6E15               	movwf	??_runStateMachine& (0+255),c
   522  0001AA  0E00               	movlw	0
   523  0001AC  6E29               	movwf	_uart_rxbuffer_counter,c
   524  0001AE  5015               	movf	??_runStateMachine& (0+255),w,c
   525                           
   526                           ;main.c: 151: updateFirmware__Flash();
   527  0001B0  EC06  F001         	call	_updateFirmware__Flash	;wreg free
   528                           
   529                           ;main.c: 152: if (--totalNumberOfPacckets > 0) {
   530  0001B4  0E01               	movlw	1
   531  0001B6  5E28               	subwf	_totalNumberOfPacckets,f,c
   532  0001B8  B4D8               	btfsc	status,2,c
   533  0001BA  D007               	goto	l982
   534                           
   535                           ;main.c: 153: sendData__UART(SYS_SND_NXT_CHUNK);
   536  0001BC  6E15               	movwf	??_runStateMachine& (0+255),c
   537  0001BE  0E05               	movlw	5
   538  0001C0  6E0F               	movwf	?_sendData__UART,c
   539  0001C2  5015               	movf	??_runStateMachine& (0+255),w,c
   540  0001C4  ECD4  F001         	call	_sendData__UART	;wreg free
   541                           
   542                           ;main.c: 154: } else {
   543  0001C8  D00D               	goto	l992
   544  0001CA                     l982:
   545                           
   546                           ;main.c: 155: currentState = SYS_RUN_APPLCN;
   547  0001CA  6E15               	movwf	??_runStateMachine& (0+255),c
   548  0001CC  0E04               	movlw	4
   549  0001CE  D008               	goto	L2
   550  0001D0                     l984:
   551                           
   552                           ;main.c: 161: uart_rxbuffer_counter = 0;
   553  0001D0  6E15               	movwf	??_runStateMachine& (0+255),c
   554  0001D2  0E00               	movlw	0
   555  0001D4  6E29               	movwf	_uart_rxbuffer_counter,c
   556  0001D6  5015               	movf	??_runStateMachine& (0+255),w,c
   557                           
   558                           ;main.c: 163: runApplcn();
   559  0001D8  EC97  F001         	call	_runApplcn	;wreg free
   560  0001DC                     L3:
   561                           
   562                           ;main.c: 164: currentState = SYS_WAIT_FOR_START_CMND;
   563  0001DC  6E15               	movwf	??_runStateMachine& (0+255),c
   564  0001DE  0E00               	movlw	0
   565  0001E0                     L2:
   566  0001E0  6E1B               	movwf	runStateMachine@currentState,c
   567  0001E2  5015               	movf	??_runStateMachine& (0+255),w,c
   568  0001E4                     l992:
   569  0001E4  501B               	movf	runStateMachine@currentState,w,c
   570                           
   571                           ; Switch size 1, requested type "space"
   572                           ; Number of cases is 6, Range of values is 0 to 5
   573                           ; switch strategies available:
   574                           ; Name         Instructions Cycles
   575                           ; simple_byte           19    10 (average)
   576                           ;	Chosen strategy is simple_byte
   577  0001E6  0A00               	xorlw	0	; case 0
   578  0001E8  B4D8               	btfsc	status,2,c
   579  0001EA  D79C               	goto	l936
   580  0001EC  0A01               	xorlw	1	; case 1
   581  0001EE  B4D8               	btfsc	status,2,c
   582  0001F0  D7CA               	goto	l962
   583  0001F2  0A03               	xorlw	3	; case 2
   584  0001F4  B4D8               	btfsc	status,2,c
   585  0001F6  D7A9               	goto	l948
   586  0001F8  0A01               	xorlw	1	; case 3
   587  0001FA  B4D8               	btfsc	status,2,c
   588  0001FC  D7CF               	goto	l970
   589  0001FE  0A07               	xorlw	7	; case 4
   590  000200  B4D8               	btfsc	status,2,c
   591  000202  D7E6               	goto	l984
   592  000204  0A01               	xorlw	1	; case 5
   593  000206  B4D8               	btfsc	status,2,c
   594  000208  D74E               	goto	l918
   595  00020A  D7EC               	goto	l992
   596  00020C                     __end_of_runStateMachine:
   597                           	opt stack 0
   598                           tblptru	equ	0xFF8
   599                           tblptrh	equ	0xFF7
   600                           tblptrl	equ	0xFF6
   601                           tablat	equ	0xFF5
   602                           prodh	equ	0xFF4
   603                           prodl	equ	0xFF3
   604                           postinc0	equ	0xFEE
   605                           wreg	equ	0xFE8
   606                           postdec1	equ	0xFE5
   607                           fsr1l	equ	0xFE1
   608                           indf2	equ	0xFDF
   609                           fsr2h	equ	0xFDA
   610                           fsr2l	equ	0xFD9
   611                           status	equ	0xFD8
   612                           
   613 ;; *************** function _updateFirmware__Flash *****************
   614 ;; Defined at:
   615 ;;		line 41 in file "FlashDriver.c"
   616 ;; Parameters:    Size  Location     Type
   617 ;;		None
   618 ;; Auto vars:     Size  Location     Type
   619 ;;  bc              2   18[COMRAM] int 
   620 ;;  bufIndex        2   16[COMRAM] int 
   621 ;;  size            2   14[COMRAM] int 
   622 ;; Return value:  Size  Location     Type
   623 ;;		None               void
   624 ;; Registers used:
   625 ;;		wreg, fsr2l, fsr2h, status,2, status,0
   626 ;; Tracked objects:
   627 ;;		On entry : 0/0
   628 ;;		On exit  : 0/0
   629 ;;		Unchanged: 0/0
   630 ;; Data sizes:     COMRAM   BANK0   BANK1   BANK2
   631 ;;      Params:         0       0       0       0
   632 ;;      Locals:         6       0       0       0
   633 ;;      Temps:          0       0       0       0
   634 ;;      Totals:         6       0       0       0
   635 ;;Total ram usage:        6 bytes
   636 ;; Hardware stack levels used:    1
   637 ;; Hardware stack levels required when called:    1
   638 ;; This function calls:
   639 ;;		Nothing
   640 ;; This function is called by:
   641 ;;		_runStateMachine
   642 ;; This function uses a non-reentrant model
   643 ;;
   644                           
   645                           	psect	text2
   646  00020C                     __ptext2:
   647                           	opt stack 0
   648  00020C                     _updateFirmware__Flash:
   649                           	opt stack 28
   650                           
   651                           ;FlashDriver.c: 42: int size = 0;
   652                           
   653                           ;incstack = 0
   654                           ;incstack = 0
   655  00020C  0E00               	movlw	0
   656  00020E  6E10               	movwf	updateFirmware__Flash@size+1,c
   657  000210  0E00               	movlw	0
   658  000212  6E0F               	movwf	updateFirmware__Flash@size,c
   659                           
   660                           ;FlashDriver.c: 43: int bufIndex = 0;
   661  000214  0E00               	movlw	0
   662  000216  6E12               	movwf	updateFirmware__Flash@bufIndex+1,c
   663  000218  0E00               	movlw	0
   664  00021A  6E11               	movwf	updateFirmware__Flash@bufIndex,c
   665                           
   666                           ;FlashDriver.c: 45: while (size < 8 && bufIndex < 64) {
   667  00021C  D02F               	goto	l1056
   668  00021E                     l1032:
   669                           
   670                           ;FlashDriver.c: 46: for (int bc = 0; bc < 8; bc++) {
   671  00021E  0E00               	movlw	0
   672  000220  6E14               	movwf	updateFirmware__Flash@bc+1,c
   673  000222  0E00               	movlw	0
   674  000224  6E13               	movwf	updateFirmware__Flash@bc,c
   675  000226  5014               	movf	updateFirmware__Flash@bc+1,w,c
   676  000228  0A80               	xorlw	128
   677  00022A  0F80               	addlw	-128
   678  00022C  0E08               	movlw	8
   679  00022E  B4D8               	btfsc	status,2,c
   680  000230  5C13               	subwf	updateFirmware__Flash@bc,w,c
   681  000232  B0D8               	btfsc	status,0,c
   682  000234  D010               	goto	l102
   683                           
   684                           ;FlashDriver.c: 47: TABLAT = uart_rxbuffer[bufIndex++];
   685  000236  0100               	movlb	0	; () banked
   686  000238  0E60               	movlw	low _uart_rxbuffer
   687  00023A  2411               	addwf	updateFirmware__Flash@bufIndex,w,c
   688  00023C  6ED9               	movwf	fsr2l,c
   689  00023E  0100               	movlb	0	; () banked
   690  000240  0E00               	movlw	high _uart_rxbuffer
   691  000242  2012               	addwfc	updateFirmware__Flash@bufIndex+1,w,c
   692  000244  6EDA               	movwf	fsr2h,c
   693  000246  50DF               	movf	indf2,w,c
   694  000248  6EF5               	movwf	tablat,c	;volatile
   695                           
   696                           ; BSR set to: 0
   697  00024A  4A11               	infsnz	updateFirmware__Flash@bufIndex,f,c
   698  00024C  2A12               	incf	updateFirmware__Flash@bufIndex+1,f,c
   699  00024E  000D               	tblwt		*+	;# 
   700  000250  4A13               	infsnz	updateFirmware__Flash@bc,f,c
   701  000252  2A14               	incf	updateFirmware__Flash@bc+1,f,c
   702  000254  D7E8               	goto	L6
   703  000256                     l102:
   704  000256  000A               	tblrd		*-	;# 
   705                           
   706                           ;FlashDriver.c: 61: INTCONbits.GIE = 0;
   707  000258  9EF2               	bcf	intcon,7,c	;volatile
   708                           
   709                           ;FlashDriver.c: 62: EECON1bits.WREN = 1;
   710  00025A  84A6               	bsf	4006,2,c	;volatile
   711                           
   712                           ;FlashDriver.c: 63: EECON1bits.FREE = 0;
   713  00025C  98A6               	bcf	4006,4,c	;volatile
   714                           
   715                           ;FlashDriver.c: 64: EECON2 = 0X55;
   716  00025E  0E55               	movlw	85
   717  000260  6EA7               	movwf	4007,c	;volatile
   718                           
   719                           ;FlashDriver.c: 65: EECON2 = 0xAA;
   720  000262  0EAA               	movlw	170
   721  000264  6EA7               	movwf	4007,c	;volatile
   722                           
   723                           ;FlashDriver.c: 66: EECON1bits.WR = 1;
   724  000266  82A6               	bsf	4006,1,c	;volatile
   725  000268  F000               	nop		;# 
   726                           
   727                           ;FlashDriver.c: 68: EECON1bits.WREN = 0;
   728  00026A  94A6               	bcf	4006,2,c	;volatile
   729                           
   730                           ;FlashDriver.c: 69: INTCONbits.GIE = 1;
   731  00026C  8EF2               	bsf	intcon,7,c	;volatile
   732  00026E  0009               	tblrd		*+	;# 
   733                           
   734                           ;FlashDriver.c: 76: size = size + 1;
   735  000270  0E01               	movlw	1
   736  000272  240F               	addwf	updateFirmware__Flash@size,w,c
   737  000274  6E0F               	movwf	updateFirmware__Flash@size,c
   738  000276  0E00               	movlw	0
   739  000278  2010               	addwfc	updateFirmware__Flash@size+1,w,c
   740  00027A  6E10               	movwf	updateFirmware__Flash@size+1,c
   741  00027C                     l1056:
   742  00027C  5010               	movf	updateFirmware__Flash@size+1,w,c
   743  00027E  0A80               	xorlw	128
   744  000280  0F80               	addlw	-128
   745  000282  0E08               	movlw	8
   746  000284  B4D8               	btfsc	status,2,c
   747  000286  5C0F               	subwf	updateFirmware__Flash@size,w,c
   748  000288  B0D8               	btfsc	status,0,c
   749  00028A  D008               	goto	l106
   750  00028C  5012               	movf	updateFirmware__Flash@bufIndex+1,w,c
   751  00028E  0A80               	xorlw	128
   752  000290  0F80               	addlw	-128
   753  000292  0E40               	movlw	64
   754  000294  B4D8               	btfsc	status,2,c
   755  000296  5C11               	subwf	updateFirmware__Flash@bufIndex,w,c
   756  000298  A0D8               	btfss	status,0,c
   757  00029A  D7C1               	goto	l1032
   758  00029C                     l106:
   759  00029C  0012               	return	
   760  00029E                     __end_of_updateFirmware__Flash:
   761                           	opt stack 0
   762                           tblptru	equ	0xFF8
   763                           tblptrh	equ	0xFF7
   764                           tblptrl	equ	0xFF6
   765                           tablat	equ	0xFF5
   766                           prodh	equ	0xFF4
   767                           prodl	equ	0xFF3
   768                           intcon	equ	0xFF2
   769                           postinc0	equ	0xFEE
   770                           wreg	equ	0xFE8
   771                           postdec1	equ	0xFE5
   772                           fsr1l	equ	0xFE1
   773                           indf2	equ	0xFDF
   774                           fsr2h	equ	0xFDA
   775                           fsr2l	equ	0xFD9
   776                           status	equ	0xFD8
   777                           
   778 ;; *************** function _updateTablPtr__Flash *****************
   779 ;; Defined at:
   780 ;;		line 84 in file "FlashDriver.c"
   781 ;; Parameters:    Size  Location     Type
   782 ;;		None
   783 ;; Auto vars:     Size  Location     Type
   784 ;;		None
   785 ;; Return value:  Size  Location     Type
   786 ;;		None               void
   787 ;; Registers used:
   788 ;;		wreg, status,2
   789 ;; Tracked objects:
   790 ;;		On entry : 0/0
   791 ;;		On exit  : 0/0
   792 ;;		Unchanged: 0/0
   793 ;; Data sizes:     COMRAM   BANK0   BANK1   BANK2
   794 ;;      Params:         0       0       0       0
   795 ;;      Locals:         0       0       0       0
   796 ;;      Temps:          0       0       0       0
   797 ;;      Totals:         0       0       0       0
   798 ;;Total ram usage:        0 bytes
   799 ;; Hardware stack levels used:    1
   800 ;; Hardware stack levels required when called:    1
   801 ;; This function calls:
   802 ;;		Nothing
   803 ;; This function is called by:
   804 ;;		_runStateMachine
   805 ;; This function uses a non-reentrant model
   806 ;;
   807                           
   808                           	psect	text3
   809  000390                     __ptext3:
   810                           	opt stack 0
   811  000390                     _updateTablPtr__Flash:
   812                           	opt stack 28
   813                           
   814                           ;FlashDriver.c: 85: TBLPTRU = 0x00;
   815                           
   816                           ;incstack = 0
   817                           ;incstack = 0
   818  000390  0E00               	movlw	0
   819  000392  6EF8               	movwf	tblptru,c	;volatile
   820                           
   821                           ;FlashDriver.c: 86: TBLPTRH = (uint8_t) ((applStartAdd & 0xff00) >> 8);
   822  000394  5027               	movf	_applStartAdd+1,w,c
   823  000396  6EF7               	movwf	tblptrh,c	;volatile
   824                           
   825                           ;FlashDriver.c: 87: TBLPTRL = (uint8_t) (applStartAdd & 0x00ff);
   826  000398  C026  FFF6         	movff	_applStartAdd,tblptrl	;volatile
   827  00039C  0012               	return	
   828  00039E                     __end_of_updateTablPtr__Flash:
   829                           	opt stack 0
   830                           tblptru	equ	0xFF8
   831                           tblptrh	equ	0xFF7
   832                           tblptrl	equ	0xFF6
   833                           tablat	equ	0xFF5
   834                           prodh	equ	0xFF4
   835                           prodl	equ	0xFF3
   836                           intcon	equ	0xFF2
   837                           postinc0	equ	0xFEE
   838                           wreg	equ	0xFE8
   839                           postdec1	equ	0xFE5
   840                           fsr1l	equ	0xFE1
   841                           indf2	equ	0xFDF
   842                           fsr2h	equ	0xFDA
   843                           fsr2l	equ	0xFD9
   844                           status	equ	0xFD8
   845                           
   846 ;; *************** function _erasePage__Flash *****************
   847 ;; Defined at:
   848 ;;		line 93 in file "FlashDriver.c"
   849 ;; Parameters:    Size  Location     Type
   850 ;;		None
   851 ;; Auto vars:     Size  Location     Type
   852 ;;  rowAdd          2   14[COMRAM] unsigned short 
   853 ;; Return value:  Size  Location     Type
   854 ;;		None               void
   855 ;; Registers used:
   856 ;;		wreg, status,2, status,0, prodl, prodh
   857 ;; Tracked objects:
   858 ;;		On entry : 0/0
   859 ;;		On exit  : 0/0
   860 ;;		Unchanged: 0/0
   861 ;; Data sizes:     COMRAM   BANK0   BANK1   BANK2
   862 ;;      Params:         0       0       0       0
   863 ;;      Locals:         2       0       0       0
   864 ;;      Temps:          0       0       0       0
   865 ;;      Totals:         2       0       0       0
   866 ;;Total ram usage:        2 bytes
   867 ;; Hardware stack levels used:    1
   868 ;; Hardware stack levels required when called:    1
   869 ;; This function calls:
   870 ;;		Nothing
   871 ;; This function is called by:
   872 ;;		_runStateMachine
   873 ;; This function uses a non-reentrant model
   874 ;;
   875                           
   876                           	psect	text4
   877  00029E                     __ptext4:
   878                           	opt stack 0
   879  00029E                     _erasePage__Flash:
   880                           	opt stack 28
   881                           
   882                           ;FlashDriver.c: 94: uint16_t rowAdd = applStartAdd;
   883                           
   884                           ;incstack = 0
   885                           ;incstack = 0
   886  00029E  C026  F00F         	movff	_applStartAdd,erasePage__Flash@rowAdd
   887  0002A2  C027  F010         	movff	_applStartAdd+1,erasePage__Flash@rowAdd+1
   888                           
   889                           ;FlashDriver.c: 96: while (rowAdd <= (applStartAdd + (totalNumberOfPacckets * 64))) {
   890  0002A6  D017               	goto	l1024
   891  0002A8                     l1002:
   892                           
   893                           ;FlashDriver.c: 97: TBLPTRH = (uint8_t) ((rowAdd & 0xff00) >> 8);
   894  0002A8  5010               	movf	erasePage__Flash@rowAdd+1,w,c
   895  0002AA  6EF7               	movwf	tblptrh,c	;volatile
   896                           
   897                           ;FlashDriver.c: 98: TBLPTRL = (uint8_t) (rowAdd & 0x00ff);
   898  0002AC  C00F  FFF6         	movff	erasePage__Flash@rowAdd,tblptrl	;volatile
   899                           
   900                           ;FlashDriver.c: 100: EECON1bits.EEPGD = 1;
   901  0002B0  8EA6               	bsf	4006,7,c	;volatile
   902                           
   903                           ;FlashDriver.c: 101: EECON1bits.CFGS = 0;
   904  0002B2  9CA6               	bcf	4006,6,c	;volatile
   905                           
   906                           ;FlashDriver.c: 102: EECON1bits.WREN = 1;
   907  0002B4  84A6               	bsf	4006,2,c	;volatile
   908                           
   909                           ;FlashDriver.c: 103: EECON1bits.FREE = 1;
   910  0002B6  88A6               	bsf	4006,4,c	;volatile
   911                           
   912                           ;FlashDriver.c: 105: INTCONbits.GIE = 0;
   913  0002B8  9EF2               	bcf	intcon,7,c	;volatile
   914                           
   915                           ;FlashDriver.c: 107: EECON2 = 0x55;
   916  0002BA  0E55               	movlw	85
   917  0002BC  6EA7               	movwf	4007,c	;volatile
   918                           
   919                           ;FlashDriver.c: 108: EECON2 = 0xAA;
   920  0002BE  0EAA               	movlw	170
   921  0002C0  6EA7               	movwf	4007,c	;volatile
   922                           
   923                           ;FlashDriver.c: 110: EECON1bits.WR = 1;
   924  0002C2  82A6               	bsf	4006,1,c	;volatile
   925  0002C4  F000               	nop		;# 
   926                           
   927                           ;FlashDriver.c: 113: EECON1bits.WREN = 0;
   928  0002C6  94A6               	bcf	4006,2,c	;volatile
   929                           
   930                           ;FlashDriver.c: 114: INTCONbits.GIE = 1;
   931  0002C8  8EF2               	bsf	intcon,7,c	;volatile
   932                           
   933                           ;FlashDriver.c: 115: rowAdd = rowAdd + 0x000040;
   934  0002CA  0E40               	movlw	64
   935  0002CC  240F               	addwf	erasePage__Flash@rowAdd,w,c
   936  0002CE  6E0F               	movwf	erasePage__Flash@rowAdd,c
   937  0002D0  0E00               	movlw	0
   938  0002D2  2010               	addwfc	erasePage__Flash@rowAdd+1,w,c
   939  0002D4  6E10               	movwf	erasePage__Flash@rowAdd+1,c
   940  0002D6                     l1024:
   941  0002D6  5028               	movf	_totalNumberOfPacckets,w,c
   942  0002D8  0D40               	mullw	64
   943  0002DA  5026               	movf	_applStartAdd,w,c
   944  0002DC  26F3               	addwf	prodl,f,c
   945  0002DE  5027               	movf	_applStartAdd+1,w,c
   946  0002E0  22F4               	addwfc	prodh,f,c
   947  0002E2  500F               	movf	erasePage__Flash@rowAdd,w,c
   948  0002E4  5CF3               	subwf	prodl,w,c
   949  0002E6  5010               	movf	erasePage__Flash@rowAdd+1,w,c
   950  0002E8  58F4               	subwfb	prodh,w,c
   951  0002EA  A0D8               	btfss	status,0,c
   952  0002EC  0012               	return	
   953  0002EE  D7DC               	goto	l1002
   954  0002F0                     __end_of_erasePage__Flash:
   955                           	opt stack 0
   956                           tblptru	equ	0xFF8
   957                           tblptrh	equ	0xFF7
   958                           tblptrl	equ	0xFF6
   959                           tablat	equ	0xFF5
   960                           prodh	equ	0xFF4
   961                           prodl	equ	0xFF3
   962                           intcon	equ	0xFF2
   963                           postinc0	equ	0xFEE
   964                           wreg	equ	0xFE8
   965                           postdec1	equ	0xFE5
   966                           fsr1l	equ	0xFE1
   967                           indf2	equ	0xFDF
   968                           fsr2h	equ	0xFDA
   969                           fsr2l	equ	0xFD9
   970                           status	equ	0xFD8
   971                           
   972 ;; *************** function _sendData__UART *****************
   973 ;; Defined at:
   974 ;;		line 63 in file "UARTDriver.c"
   975 ;; Parameters:    Size  Location     Type
   976 ;;  data            1   14[COMRAM] unsigned char 
   977 ;; Auto vars:     Size  Location     Type
   978 ;;		None
   979 ;; Return value:  Size  Location     Type
   980 ;;		None               void
   981 ;; Registers used:
   982 ;;		None
   983 ;; Tracked objects:
   984 ;;		On entry : 0/0
   985 ;;		On exit  : 0/0
   986 ;;		Unchanged: 0/0
   987 ;; Data sizes:     COMRAM   BANK0   BANK1   BANK2
   988 ;;      Params:         1       0       0       0
   989 ;;      Locals:         0       0       0       0
   990 ;;      Temps:          0       0       0       0
   991 ;;      Totals:         1       0       0       0
   992 ;;Total ram usage:        1 bytes
   993 ;; Hardware stack levels used:    1
   994 ;; Hardware stack levels required when called:    1
   995 ;; This function calls:
   996 ;;		Nothing
   997 ;; This function is called by:
   998 ;;		_runStateMachine
   999 ;; This function uses a non-reentrant model
  1000 ;;
  1001                           
  1002                           	psect	text5
  1003  0003A8                     __ptext5:
  1004                           	opt stack 0
  1005  0003A8                     _sendData__UART:
  1006                           	opt stack 28
  1007                           
  1008                           ;UARTDriver.c: 65: TXREG = data;
  1009                           
  1010                           ;incstack = 0
  1011                           ;incstack = 0
  1012  0003A8  C00F  FFAD         	movff	sendData__UART@data,4013	;volatile
  1013  0003AC                     l153:
  1014  0003AC  B2AC               	btfsc	4012,1,c	;volatile
  1015  0003AE  0012               	return	
  1016  0003B0  D7FD               	goto	l153
  1017  0003B2                     __end_of_sendData__UART:
  1018                           	opt stack 0
  1019                           tblptru	equ	0xFF8
  1020                           tblptrh	equ	0xFF7
  1021                           tblptrl	equ	0xFF6
  1022                           tablat	equ	0xFF5
  1023                           prodh	equ	0xFF4
  1024                           prodl	equ	0xFF3
  1025                           intcon	equ	0xFF2
  1026                           postinc0	equ	0xFEE
  1027                           wreg	equ	0xFE8
  1028                           postdec1	equ	0xFE5
  1029                           fsr1l	equ	0xFE1
  1030                           indf2	equ	0xFDF
  1031                           fsr2h	equ	0xFDA
  1032                           fsr2l	equ	0xFD9
  1033                           status	equ	0xFD8
  1034                           
  1035 ;; *************** function _runApplcn *****************
  1036 ;; Defined at:
  1037 ;;		line 67 in file "main.c"
  1038 ;; Parameters:    Size  Location     Type
  1039 ;;		None
  1040 ;; Auto vars:     Size  Location     Type
  1041 ;;  applcFtr        2   14[COMRAM] PTR FTN()void 
  1042 ;;		 -> Absolute function(0), 
  1043 ;; Return value:  Size  Location     Type
  1044 ;;		None               void
  1045 ;; Registers used:
  1046 ;;		wreg, pclat, tosl, cstack
  1047 ;; Tracked objects:
  1048 ;;		On entry : 0/0
  1049 ;;		On exit  : 0/0
  1050 ;;		Unchanged: 0/0
  1051 ;; Data sizes:     COMRAM   BANK0   BANK1   BANK2
  1052 ;;      Params:         0       0       0       0
  1053 ;;      Locals:         2       0       0       0
  1054 ;;      Temps:          0       0       0       0
  1055 ;;      Totals:         2       0       0       0
  1056 ;;Total ram usage:        2 bytes
  1057 ;; Hardware stack levels used:    1
  1058 ;; Hardware stack levels required when called:    2
  1059 ;; This function calls:
  1060 ;;		Absolute function
  1061 ;; This function is called by:
  1062 ;;		_runStateMachine
  1063 ;; This function uses a non-reentrant model
  1064 ;;
  1065                           
  1066                           	psect	text6
  1067  00032E                     __ptext6:
  1068                           	opt stack 0
  1069  00032E                     _runApplcn:
  1070                           	opt stack 27
  1071                           
  1072                           ;main.c: 68: void (*applcFtr)(void);
  1073                           ;main.c: 69: applcFtr = (void (*)(void))applStartAdd;
  1074                           
  1075                           ;incstack = 0
  1076                           ;incstack = 0
  1077  00032E  C026  F00F         	movff	_applStartAdd,runApplcn@applcFtr
  1078  000332  C027  F010         	movff	_applStartAdd+1,runApplcn@applcFtr+1
  1079                           
  1080                           ;main.c: 70: applcFtr();
  1081  000336  D801               	call	u258
  1082  000338  D00A               	goto	u259
  1083  00033A                     u258:
  1084  00033A  0005               	push	
  1085  00033C  6EFA               	movwf	pclath,c
  1086  00033E  500F               	movf	runApplcn@applcFtr,w,c
  1087  000340  6EFD               	movwf	tosl,c
  1088  000342  5010               	movf	runApplcn@applcFtr+1,w,c
  1089  000344  6EFE               	movwf	tosh,c
  1090  000346  50F8               	movf	tblptru,w,c
  1091  000348  6EFF               	movwf	tosu,c
  1092  00034A  50FA               	movf	pclath,w,c
  1093  00034C  0012               	return		;indir
  1094  00034E                     u259:
  1095  00034E  0012               	return	
  1096  000350                     __end_of_runApplcn:
  1097                           	opt stack 0
  1098                           tosu	equ	0xFFF
  1099                           tosh	equ	0xFFE
  1100                           tosl	equ	0xFFD
  1101                           pclath	equ	0xFFA
  1102                           tblptru	equ	0xFF8
  1103                           tblptrh	equ	0xFF7
  1104                           tblptrl	equ	0xFF6
  1105                           tablat	equ	0xFF5
  1106                           prodh	equ	0xFF4
  1107                           prodl	equ	0xFF3
  1108                           intcon	equ	0xFF2
  1109                           postinc0	equ	0xFEE
  1110                           wreg	equ	0xFE8
  1111                           postdec1	equ	0xFE5
  1112                           fsr1l	equ	0xFE1
  1113                           indf2	equ	0xFDF
  1114                           fsr2h	equ	0xFDA
  1115                           fsr2l	equ	0xFD9
  1116                           status	equ	0xFD8
  1117                           
  1118 ;; *************** function _driverConfig__UART *****************
  1119 ;; Defined at:
  1120 ;;		line 39 in file "UARTDriver.c"
  1121 ;; Parameters:    Size  Location     Type
  1122 ;;		None
  1123 ;; Auto vars:     Size  Location     Type
  1124 ;;		None
  1125 ;; Return value:  Size  Location     Type
  1126 ;;		None               void
  1127 ;; Registers used:
  1128 ;;		wreg, status,2
  1129 ;; Tracked objects:
  1130 ;;		On entry : 0/0
  1131 ;;		On exit  : 0/0
  1132 ;;		Unchanged: 0/0
  1133 ;; Data sizes:     COMRAM   BANK0   BANK1   BANK2
  1134 ;;      Params:         0       0       0       0
  1135 ;;      Locals:         0       0       0       0
  1136 ;;      Temps:          0       0       0       0
  1137 ;;      Totals:         0       0       0       0
  1138 ;;Total ram usage:        0 bytes
  1139 ;; Hardware stack levels used:    1
  1140 ;; Hardware stack levels required when called:    1
  1141 ;; This function calls:
  1142 ;;		Nothing
  1143 ;; This function is called by:
  1144 ;;		_main
  1145 ;; This function uses a non-reentrant model
  1146 ;;
  1147                           
  1148                           	psect	text7
  1149  000350                     __ptext7:
  1150                           	opt stack 0
  1151  000350                     _driverConfig__UART:
  1152                           	opt stack 29
  1153                           
  1154                           ;UARTDriver.c: 41: RCONbits.IPEN = 1;
  1155                           
  1156                           ;incstack = 0
  1157                           ;incstack = 0
  1158  000350  8ED0               	bsf	4048,7,c	;volatile
  1159                           
  1160                           ;UARTDriver.c: 42: INTCONbits.GIE = 1;
  1161  000352  8EF2               	bsf	intcon,7,c	;volatile
  1162                           
  1163                           ;UARTDriver.c: 43: INTCONbits.PEIE = 1;
  1164  000354  8CF2               	bsf	intcon,6,c	;volatile
  1165                           
  1166                           ;UARTDriver.c: 44: PIE1bits.RCIE = 1;
  1167  000356  8A9D               	bsf	3997,5,c	;volatile
  1168                           
  1169                           ;UARTDriver.c: 46: TXSTA = 0;
  1170  000358  0E00               	movlw	0
  1171  00035A  6EAC               	movwf	4012,c	;volatile
  1172                           
  1173                           ;UARTDriver.c: 47: RCSTA = 0;
  1174  00035C  0E00               	movlw	0
  1175  00035E  6EAB               	movwf	4011,c	;volatile
  1176                           
  1177                           ;UARTDriver.c: 49: TXSTAbits.BRGH = 0;
  1178  000360  94AC               	bcf	4012,2,c	;volatile
  1179                           
  1180                           ;UARTDriver.c: 52: SPBRG = 25;
  1181  000362  0E19               	movlw	25
  1182  000364  6EAF               	movwf	4015,c	;volatile
  1183                           
  1184                           ;UARTDriver.c: 55: RCSTAbits.SPEN = 1;
  1185  000366  8EAB               	bsf	4011,7,c	;volatile
  1186                           
  1187                           ;UARTDriver.c: 56: TXSTAbits.TXEN = 1;
  1188  000368  8AAC               	bsf	4012,5,c	;volatile
  1189                           
  1190                           ;UARTDriver.c: 57: RCSTAbits.CREN = 1;
  1191  00036A  88AB               	bsf	4011,4,c	;volatile
  1192  00036C  0012               	return	
  1193  00036E                     __end_of_driverConfig__UART:
  1194                           	opt stack 0
  1195                           tosu	equ	0xFFF
  1196                           tosh	equ	0xFFE
  1197                           tosl	equ	0xFFD
  1198                           pclath	equ	0xFFA
  1199                           tblptru	equ	0xFF8
  1200                           tblptrh	equ	0xFF7
  1201                           tblptrl	equ	0xFF6
  1202                           tablat	equ	0xFF5
  1203                           prodh	equ	0xFF4
  1204                           prodl	equ	0xFF3
  1205                           intcon	equ	0xFF2
  1206                           postinc0	equ	0xFEE
  1207                           wreg	equ	0xFE8
  1208                           postdec1	equ	0xFE5
  1209                           fsr1l	equ	0xFE1
  1210                           indf2	equ	0xFDF
  1211                           fsr2h	equ	0xFDA
  1212                           fsr2l	equ	0xFD9
  1213                           status	equ	0xFD8
  1214                           
  1215 ;; *************** function _initVarConfigPort *****************
  1216 ;; Defined at:
  1217 ;;		line 51 in file "main.c"
  1218 ;; Parameters:    Size  Location     Type
  1219 ;;		None
  1220 ;; Auto vars:     Size  Location     Type
  1221 ;;		None
  1222 ;; Return value:  Size  Location     Type
  1223 ;;		None               void
  1224 ;; Registers used:
  1225 ;;		wreg, status,2
  1226 ;; Tracked objects:
  1227 ;;		On entry : 0/0
  1228 ;;		On exit  : 0/0
  1229 ;;		Unchanged: 0/0
  1230 ;; Data sizes:     COMRAM   BANK0   BANK1   BANK2
  1231 ;;      Params:         0       0       0       0
  1232 ;;      Locals:         0       0       0       0
  1233 ;;      Temps:          0       0       0       0
  1234 ;;      Totals:         0       0       0       0
  1235 ;;Total ram usage:        0 bytes
  1236 ;; Hardware stack levels used:    1
  1237 ;; Hardware stack levels required when called:    1
  1238 ;; This function calls:
  1239 ;;		Nothing
  1240 ;; This function is called by:
  1241 ;;		_main
  1242 ;; This function uses a non-reentrant model
  1243 ;;
  1244                           
  1245                           	psect	text8
  1246  00036E                     __ptext8:
  1247                           	opt stack 0
  1248  00036E                     _initVarConfigPort:
  1249                           	opt stack 29
  1250                           
  1251                           ;main.c: 52: PORTB = 0;
  1252                           
  1253                           ;incstack = 0
  1254                           ;incstack = 0
  1255  00036E  0E00               	movlw	0
  1256  000370  6E81               	movwf	3969,c	;volatile
  1257                           
  1258                           ;main.c: 54: ANSEL0 = 0;
  1259  000372  0E00               	movlw	0
  1260  000374  6EB8               	movwf	4024,c	;volatile
  1261                           
  1262                           ;main.c: 55: ANSEL1 = 0;
  1263  000376  0E00               	movlw	0
  1264  000378  6EB9               	movwf	4025,c	;volatile
  1265                           
  1266                           ;main.c: 58: TRISCbits.RC6 = 0;
  1267  00037A  9C94               	bcf	3988,6,c	;volatile
  1268                           
  1269                           ;main.c: 61: TRISCbits.RC7 = 1;
  1270  00037C  8E94               	bsf	3988,7,c	;volatile
  1271  00037E  0012               	return	
  1272  000380                     __end_of_initVarConfigPort:
  1273                           	opt stack 0
  1274                           tosu	equ	0xFFF
  1275                           tosh	equ	0xFFE
  1276                           tosl	equ	0xFFD
  1277                           pclath	equ	0xFFA
  1278                           tblptru	equ	0xFF8
  1279                           tblptrh	equ	0xFF7
  1280                           tblptrl	equ	0xFF6
  1281                           tablat	equ	0xFF5
  1282                           prodh	equ	0xFF4
  1283                           prodl	equ	0xFF3
  1284                           intcon	equ	0xFF2
  1285                           postinc0	equ	0xFEE
  1286                           wreg	equ	0xFE8
  1287                           postdec1	equ	0xFE5
  1288                           fsr1l	equ	0xFE1
  1289                           indf2	equ	0xFDF
  1290                           fsr2h	equ	0xFDA
  1291                           fsr2l	equ	0xFD9
  1292                           status	equ	0xFD8
  1293                           
  1294 ;; *************** function _InterruptHandlerHigh *****************
  1295 ;; Defined at:
  1296 ;;		line 73 in file "UARTDriver.c"
  1297 ;; Parameters:    Size  Location     Type
  1298 ;;		None
  1299 ;; Auto vars:     Size  Location     Type
  1300 ;;		None
  1301 ;; Return value:  Size  Location     Type
  1302 ;;		None               void
  1303 ;; Registers used:
  1304 ;;		wreg, fsr2l, fsr2h, status,2, status,0, prodl, prodh
  1305 ;; Tracked objects:
  1306 ;;		On entry : 0/0
  1307 ;;		On exit  : 0/0
  1308 ;;		Unchanged: 0/0
  1309 ;; Data sizes:     COMRAM   BANK0   BANK1   BANK2
  1310 ;;      Params:         0       0       0       0
  1311 ;;      Locals:         0       0       0       0
  1312 ;;      Temps:         14       0       0       0
  1313 ;;      Totals:        14       0       0       0
  1314 ;;Total ram usage:       14 bytes
  1315 ;; Hardware stack levels used:    1
  1316 ;; This function calls:
  1317 ;;		Nothing
  1318 ;; This function is called by:
  1319 ;;		Interrupt level 2
  1320 ;; This function uses a non-reentrant model
  1321 ;;
  1322                           
  1323                           	psect	intcode
  1324  000008                     __pintcode:
  1325                           	opt stack 0
  1326  000008                     _InterruptHandlerHigh:
  1327                           	opt stack 27
  1328                           
  1329                           ;incstack = 0
  1330  000008  CFFA F001          	movff	pclath,??_InterruptHandlerHigh
  1331  00000C  CFFB F002          	movff	pclatu,??_InterruptHandlerHigh+1
  1332  000010  CFE9 F003          	movff	fsr0l,??_InterruptHandlerHigh+2
  1333  000014  CFEA F004          	movff	fsr0h,??_InterruptHandlerHigh+3
  1334  000018  CFE1 F005          	movff	fsr1l,??_InterruptHandlerHigh+4
  1335  00001C  CFE2 F006          	movff	fsr1h,??_InterruptHandlerHigh+5
  1336  000020  CFD9 F007          	movff	fsr2l,??_InterruptHandlerHigh+6
  1337  000024  CFDA F008          	movff	fsr2h,??_InterruptHandlerHigh+7
  1338  000028  CFF3 F009          	movff	prodl,??_InterruptHandlerHigh+8
  1339  00002C  CFF4 F00A          	movff	prodh,??_InterruptHandlerHigh+9
  1340  000030  CFF6 F00B          	movff	tblptrl,??_InterruptHandlerHigh+10
  1341  000034  CFF7 F00C          	movff	tblptrh,??_InterruptHandlerHigh+11
  1342  000038  CFF8 F00D          	movff	tblptru,??_InterruptHandlerHigh+12
  1343  00003C  CFF5 F00E          	movff	tablat,??_InterruptHandlerHigh+13
  1344  000040                     
  1345                           ;UARTDriver.c: 75: if (PIR1bits.RCIF) {
  1346  000040  AA9E               	btfss	3998,5,c	;volatile
  1347  000042  D001               	goto	i2u32_41
  1348  000044  D001               	goto	i2u32_40
  1349  000046                     i2u32_41:
  1350  000046  D00F               	goto	i2l160
  1351  000048                     i2u32_40:
  1352  000048                     
  1353                           ;UARTDriver.c: 77: uart_rxbuffer[uart_rxbuffer_counter++] = RCREG;
  1354  000048  5029               	movf	_uart_rxbuffer_counter,w,c
  1355  00004A  0D01               	mullw	1
  1356  00004C  0100               	movlb	0	; () banked
  1357  00004E  0E60               	movlw	low _uart_rxbuffer
  1358  000050  24F3               	addwf	prodl,w,c
  1359  000052  6ED9               	movwf	fsr2l,c
  1360  000054  0100               	movlb	0	; () banked
  1361  000056  0E00               	movlw	high _uart_rxbuffer
  1362  000058  20F4               	addwfc	prodh,w,c
  1363  00005A  6EDA               	movwf	fsr2h,c
  1364  00005C  CFAE FFDF          	movff	4014,indf2	;volatile
  1365  000060                     
  1366                           ; BSR set to: 0
  1367  000060  2A29               	incf	_uart_rxbuffer_counter,f,c
  1368  000062                     
  1369                           ; BSR set to: 0
  1370                           ;UARTDriver.c: 79: PIR1bits.RCIF = 0;
  1371  000062  9A9E               	bcf	3998,5,c	;volatile
  1372  000064  D000               	goto	i2l160
  1373  000066                     i2l160:
  1374  000066  C00E  FFF5         	movff	??_InterruptHandlerHigh+13,tablat
  1375  00006A  C00D  FFF8         	movff	??_InterruptHandlerHigh+12,tblptru
  1376  00006E  C00C  FFF7         	movff	??_InterruptHandlerHigh+11,tblptrh
  1377  000072  C00B  FFF6         	movff	??_InterruptHandlerHigh+10,tblptrl
  1378  000076  C00A  FFF4         	movff	??_InterruptHandlerHigh+9,prodh
  1379  00007A  C009  FFF3         	movff	??_InterruptHandlerHigh+8,prodl
  1380  00007E  C008  FFDA         	movff	??_InterruptHandlerHigh+7,fsr2h
  1381  000082  C007  FFD9         	movff	??_InterruptHandlerHigh+6,fsr2l
  1382  000086  C006  FFE2         	movff	??_InterruptHandlerHigh+5,fsr1h
  1383  00008A  C005  FFE1         	movff	??_InterruptHandlerHigh+4,fsr1l
  1384  00008E  C004  FFEA         	movff	??_InterruptHandlerHigh+3,fsr0h
  1385  000092  C003  FFE9         	movff	??_InterruptHandlerHigh+2,fsr0l
  1386  000096  C002  FFFB         	movff	??_InterruptHandlerHigh+1,pclatu
  1387  00009A  C001  FFFA         	movff	??_InterruptHandlerHigh,pclath
  1388  00009E  0011               	retfie		f
  1389  0000A0                     __end_of_InterruptHandlerHigh:
  1390                           	opt stack 0
  1391  0000                     tosu	equ	0xFFF
  1392                           tosh	equ	0xFFE
  1393                           tosl	equ	0xFFD
  1394                           pclatu	equ	0xFFB
  1395                           pclath	equ	0xFFA
  1396                           tblptru	equ	0xFF8
  1397                           tblptrh	equ	0xFF7
  1398                           tblptrl	equ	0xFF6
  1399                           tablat	equ	0xFF5
  1400                           prodh	equ	0xFF4
  1401                           prodl	equ	0xFF3
  1402                           intcon	equ	0xFF2
  1403                           postinc0	equ	0xFEE
  1404                           fsr0h	equ	0xFEA
  1405                           fsr0l	equ	0xFE9
  1406                           wreg	equ	0xFE8
  1407                           postdec1	equ	0xFE5
  1408                           fsr1h	equ	0xFE2
  1409                           fsr1l	equ	0xFE1
  1410                           indf2	equ	0xFDF
  1411                           fsr2h	equ	0xFDA
  1412                           fsr2l	equ	0xFD9
  1413                           status	equ	0xFD8
  1414                           tosu	equ	0xFFF
  1415                           tosh	equ	0xFFE
  1416                           tosl	equ	0xFFD
  1417                           pclatu	equ	0xFFB
  1418                           pclath	equ	0xFFA
  1419                           tblptru	equ	0xFF8
  1420                           tblptrh	equ	0xFF7
  1421                           tblptrl	equ	0xFF6
  1422                           tablat	equ	0xFF5
  1423                           prodh	equ	0xFF4
  1424                           prodl	equ	0xFF3
  1425                           intcon	equ	0xFF2
  1426                           postinc0	equ	0xFEE
  1427                           fsr0h	equ	0xFEA
  1428                           fsr0l	equ	0xFE9
  1429                           wreg	equ	0xFE8
  1430                           postdec1	equ	0xFE5
  1431                           fsr1h	equ	0xFE2
  1432                           fsr1l	equ	0xFE1
  1433                           indf2	equ	0xFDF
  1434                           fsr2h	equ	0xFDA
  1435                           fsr2l	equ	0xFD9
  1436                           status	equ	0xFD8
  1437                           
  1438                           	psect	rparam
  1439  0000                     tosu	equ	0xFFF
  1440                           tosh	equ	0xFFE
  1441                           tosl	equ	0xFFD
  1442                           pclatu	equ	0xFFB
  1443                           pclath	equ	0xFFA
  1444                           tblptru	equ	0xFF8
  1445                           tblptrh	equ	0xFF7
  1446                           tblptrl	equ	0xFF6
  1447                           tablat	equ	0xFF5
  1448                           prodh	equ	0xFF4
  1449                           prodl	equ	0xFF3
  1450                           intcon	equ	0xFF2
  1451                           postinc0	equ	0xFEE
  1452                           fsr0h	equ	0xFEA
  1453                           fsr0l	equ	0xFE9
  1454                           wreg	equ	0xFE8
  1455                           postdec1	equ	0xFE5
  1456                           fsr1h	equ	0xFE2
  1457                           fsr1l	equ	0xFE1
  1458                           indf2	equ	0xFDF
  1459                           fsr2h	equ	0xFDA
  1460                           fsr2l	equ	0xFD9
  1461                           status	equ	0xFD8


Data Sizes:
    Strings     0
    Constant    0
    Data        10
    BSS         68
    Persistent  0
    Stack       0

Auto Spaces:
    Space          Size  Autos    Used
    COMRAM           95     27      41
    BANK0           160      0      64
    BANK1           256      0       0
    BANK2           256      0       0

Pointer List with Targets:

    runApplcn@applcFtr	PTR FTN()void  size(2) Largest target is 0
		 -> Absolute function(), 


Critical Paths under _main in COMRAM

    _main->_runStateMachine
    _runStateMachine->_updateFirmware__Flash

Critical Paths under _InterruptHandlerHigh in COMRAM

    None.

Critical Paths under _main in BANK0

    None.

Critical Paths under _InterruptHandlerHigh in BANK0

    None.

Critical Paths under _main in BANK1

    None.

Critical Paths under _InterruptHandlerHigh in BANK1

    None.

Critical Paths under _main in BANK2

    None.

Critical Paths under _InterruptHandlerHigh in BANK2

    None.

Call Graph Tables:

 ---------------------------------------------------------------------------------
 (Depth) Function   	        Calls       Base Space   Used Autos Params    Refs
 ---------------------------------------------------------------------------------
 (0) _main                                                 0     0      0     352
                  _initVarConfigPort
                 _driverConfig__UART
                    _runStateMachine
 ---------------------------------------------------------------------------------
 (1) _runStateMachine                                      7     7      0     352
                                             20 COMRAM     7     7      0
                          _runApplcn
                     _sendData__UART
                   _erasePage__Flash
               _updateTablPtr__Flash
              _updateFirmware__Flash
 ---------------------------------------------------------------------------------
 (2) _updateFirmware__Flash                                6     6      0     138
                                             14 COMRAM     6     6      0
 ---------------------------------------------------------------------------------
 (2) _updateTablPtr__Flash                                 0     0      0       0
 ---------------------------------------------------------------------------------
 (2) _erasePage__Flash                                     2     2      0      90
                                             14 COMRAM     2     2      0
 ---------------------------------------------------------------------------------
 (2) _sendData__UART                                       1     0      1      22
                                             14 COMRAM     1     0      1
 ---------------------------------------------------------------------------------
 (2) _runApplcn                                            2     2      0      23
                                             14 COMRAM     2     2      0
                   Absolute function
 ---------------------------------------------------------------------------------
 (3) Absolute function(Fake)                               0     0      0       0
 ---------------------------------------------------------------------------------
 (1) _driverConfig__UART                                   0     0      0       0
 ---------------------------------------------------------------------------------
 (1) _initVarConfigPort                                    0     0      0       0
 ---------------------------------------------------------------------------------
 Estimated maximum stack depth 3
 ---------------------------------------------------------------------------------
 (Depth) Function   	        Calls       Base Space   Used Autos Params    Refs
 ---------------------------------------------------------------------------------
 (4) _InterruptHandlerHigh                                14    14      0       0
                                              0 COMRAM    14    14      0
 ---------------------------------------------------------------------------------
 Estimated maximum stack depth 4
 ---------------------------------------------------------------------------------

 Call Graph Graphs:

 _main (ROOT)
   _initVarConfigPort
   _driverConfig__UART
   _runStateMachine
     _runApplcn
       Absolute function(Fake)
     _sendData__UART
     _erasePage__Flash
     _updateTablPtr__Flash
     _updateFirmware__Flash

 _InterruptHandlerHigh (ROOT)

 Address spaces:
Name               Size   Autos  Total    Cost      Usage
BIGRAM             2FF      0       0      10        0.0%
EEDATA             100      0       0       0        0.0%
BITBANK2           100      0       0       8        0.0%
BANK2              100      0       0       9        0.0%
BITBANK1           100      0       0       6        0.0%
BANK1              100      0       0       7        0.0%
BITBANK0            A0      0       0       4        0.0%
BANK0               A0      0      40       5       40.0%
BITCOMRAM           5F      0       0       0        0.0%
COMRAM              5F     1B      29       1       43.2%
BITSFR               0      0       0      40        0.0%
SFR                  0      0       0      40        0.0%
STACK                0      0       3       2        0.0%
NULL                 0      0       0       0        0.0%
ABS                  0      0      69       3        0.0%
DATA                 0      0      6C      11        0.0%
CODE                 0      0       0       0        0.0%


Microchip Technology PIC18 Macro Assembler V1.21 build 54009 
Symbol Table                                                                                   Wed Feb 01 20:55:57 2017

                            l61 0156                     __CFG_OSC$HS 000000                     __CFG_LVP$ON 000000  
                           l102 0256                             l106 029C                             l153 03AC  
                           l922 00B8                             l932 00F2                             l924 00BE  
                           l918 00A6                             l936 0124                             l928 00D8  
                           l970 019C                             l962 0186                             l948 014A  
                           l982 01CA                             l974 01A8                             l984 01D0  
                           l992 01E4                             u258 033A                    __CFG_CPD$OFF 000000  
                           u259 034E              _driverConfig__UART 0350                             prod 000FF3  
                           tosl 000FFD                             wreg 000FE8                    __CFG_IESO$ON 000000  
    __size_of_initVarConfigPort 0012             ?_driverConfig__UART 0001                            l1002 02A8  
                          l1024 02D6                            l1032 021E                            l1056 027C  
        __end_of_sendData__UART 03B2                   __CFG_FCMEN$ON 000000                            _main 0380  
                          fsr0h 000FEA                            fsr1h 000FE2                            fsr0l 000FE9  
                          fsr2h 000FDA                            fsr1l 000FE1                            indf2 000FDF  
                          fsr2l 000FD9  __size_of_updateFirmware__Flash 0092                            pclat 000FFA  
                 __CFG_BOREN$ON 000000   __end_of_updateFirmware__Flash 029E                            prodh 000FF4  
                          prodl 000FF3                            start 00A0                   __CFG_MCLRE$ON 000000  
          ??_driverConfig__UART 000F                           ?_main 0001                           i2l160 0066  
                         i2l159 0066                           _RCREG 000FAE                           _RCSTA 000FAB  
                         _SPBRG 000FAF                           _PORTB 000F81                           _TXREG 000FAD  
                         _TXSTA 000FAC        __end_of_erasePage__Flash 02F0   updateFirmware__Flash@bufIndex 0011  
                         pclath 000FFA                 _runStateMachine 00A4                           tablat 000FF5  
               ?_sendData__UART 000F                           status 000FD8                 __initialization 02F0  
                  __end_of_main 0390                          ??_main 001C                   __activetblptr 000002  
                        _EECON2 000FA7                          _ANSEL0 000FB8                          _ANSEL1 000FB9  
                        i2l1060 0040                          i2l1062 0048                          i2l1064 0060  
                        i2l1066 0062                  __CFG_WDTEN$OFF 000000                          _TABLAT 000FF5  
         _totalNumberOfPacckets 0028                  __CFG_STVREN$ON 000000                          clear_0 02F6  
                  __pdataCOMRAM 001C         __end_of_runStateMachine 020C                          tblptrh 000FF7  
                        tblptrl 000FF6                          tblptru 000FF8                      __accesstop 0060  
       __end_of__initialization 0324                  __pcstackCOMRAM 0001   __size_of_updateTablPtr__Flash 000E  
 __size_of_InterruptHandlerHigh 0098              sendData__UART@data 000F                      __pbssBANK0 0060  
            __size_of_runApplcn 0022                ?_runStateMachine 0001                         _TBLPTRH 000FF7  
                       _TBLPTRL 000FF6                         _TBLPTRU 000FF8                         i2u32_40 0048  
                       i2u32_41 0046                ??_sendData__UART 0010               ?_erasePage__Flash 0001  
            ??_erasePage__Flash 000F                         __Hparam 0000                         __Lparam 0000  
         _updateFirmware__Flash 020C     __size_of_driverConfig__UART 001E                         __pcinit 02F0  
                       __ramtop 0300                         __ptext0 0380                         __ptext1 00A4  
                       __ptext2 020C                         __ptext3 0390                         __ptext4 029E  
                       __ptext5 03A8                         __ptext6 032E                         __ptext7 0350  
                       __ptext8 036E                    _applStartAdd 0026            end_of_initialization 0324  
                 __Lmediumconst 0000               __end_of_runApplcn 0350                       _RCSTAbits 000FAB  
                       postdec1 000FE5     runStateMachine@currentState 001B                         postinc0 000FEE  
                     _TRISCbits 000F94                       _TXSTAbits 000FAC          erasePage__Flash@rowAdd 000F  
        ?_updateFirmware__Flash 0001                   __pidataCOMRAM 039E             start_initialization 02F0  
  __end_of_updateTablPtr__Flash 039E    __end_of_InterruptHandlerHigh 00A0       updateFirmware__Flash@size 000F  
              runStateMachine@i 001A                     __pbssCOMRAM 0026       __size_of_erasePage__Flash 0052  
                     __pintcode 0008               runApplcn@applcFtr 000F        __size_of_runStateMachine 0168  
                      _PIE1bits 000F9D                        _PIR1bits 000F9E      __end_of_driverConfig__UART 036E  
                      _RCONbits 000FD0            _updateTablPtr__Flash 0390                       _runApplcn 032E  
       updateFirmware__Flash@bc 0013            _InterruptHandlerHigh 0008                       copy_data0 0318  
       ??_updateFirmware__Flash 000F                      _EECON1bits 000FA6         __size_of_sendData__UART 000A  
                      __Hrparam 0000                        __Lrparam 0000           ?_updateTablPtr__Flash 0001  
                    ?_runApplcn 0001           ?_InterruptHandlerHigh 0001           _uart_rxbuffer_counter 0029  
             _initVarConfigPort 036E                   __size_of_main 0010              ?_initVarConfigPort 0001  
                 _uart_rxbuffer 0060                _erasePage__Flash 029E               ??_runStateMachine 0015  
           ??_initVarConfigPort 000F                      _INTCONbits 000FF2                    _progMemRange 001C  
     __end_of_initVarConfigPort 0380                        intlevel2 0000          ??_updateTablPtr__Flash 000F  
                   ??_runApplcn 000F          ??_InterruptHandlerHigh 0001                  _sendData__UART 03A8  
